target datalayout = "e-m:e-p270:32:32-p271:32:32-p272:64:64-i64:64-i128:128-f80:128-n8:16:32:64-S128"
target triple = "x86_64-unknown-linux-gnu"

%"class.__gnu_cxx::__normal_iterator.77" = type { ptr }
%"class.ue2::graph_detail::vertex_descriptor" = type { ptr, i64 }
%class.anon = type { ptr }
%"struct.__gnu_cxx::__ops::_Iter_comp_iter" = type { %class.anon }

; Function Attrs: mustprogress nounwind uwtable
define linkonce_odr hidden void @_ZN9__gnu_cxx17__normal_iteratorIPN3ue212graph_detail17vertex_descriptorINS1_9ue2_graphINS1_8NGHolderENS1_19NFAGraphVertexPropsENS1_17NFAGraphEdgePropsEEEEESt6vectorIS9_SaIS9_EEEC2ERKSA_(ptr noundef nonnull align 8 dereferenceable(8) %this, ptr noundef nonnull align 8 dereferenceable(8) %__i) unnamed_addr #1 comdat align 2 {
entry:
  %this.addr = alloca ptr, align 8
  %__i.addr = alloca ptr, align 8
  store ptr %this, ptr %this.addr, align 8
  store ptr %__i, ptr %__i.addr, align 8
  %this1 = load ptr, ptr %this.addr, align 8
  %_M_current = getelementptr inbounds %"class.__gnu_cxx::__normal_iterator.77", ptr %this1, i32 0, i32 0
  %0 = load ptr, ptr %__i.addr, align 8
  %1 = load ptr, ptr %0, align 8
  store ptr %1, ptr %_M_current, align 8
  ret void
}

; Function Attrs: mustprogress nounwind uwtable
define linkonce_odr hidden noundef nonnull align 8 dereferenceable(8) ptr @_ZNK9__gnu_cxx17__normal_iteratorIPN3ue212graph_detail17vertex_descriptorINS1_9ue2_graphINS1_8NGHolderENS1_19NFAGraphVertexPropsENS1_17NFAGraphEdgePropsEEEEESt6vectorIS9_SaIS9_EEE4baseEv(ptr noundef nonnull align 8 dereferenceable(8) %this) #1 comdat align 2 {
entry:
  %this.addr = alloca ptr, align 8
  store ptr %this, ptr %this.addr, align 8
  %this1 = load ptr, ptr %this.addr, align 8
  %_M_current = getelementptr inbounds %"class.__gnu_cxx::__normal_iterator.77", ptr %this1, i32 0, i32 0
  ret ptr %_M_current
}

; Function Attrs: mustprogress nounwind uwtable
define linkonce_odr hidden ptr @_ZNK9__gnu_cxx17__normal_iteratorIPN3ue212graph_detail17vertex_descriptorINS1_9ue2_graphINS1_8NGHolderENS1_19NFAGraphVertexPropsENS1_17NFAGraphEdgePropsEEEEESt6vectorIS9_SaIS9_EEEplEl(ptr noundef nonnull align 8 dereferenceable(8) %this, i64 noundef %__n) #1 comdat align 2 {
entry:
  %retval = alloca %"class.__gnu_cxx::__normal_iterator.77", align 8
  %this.addr = alloca ptr, align 8
  %__n.addr = alloca i64, align 8
  %ref.tmp = alloca ptr, align 8
  store ptr %this, ptr %this.addr, align 8
  store i64 %__n, ptr %__n.addr, align 8
  %this1 = load ptr, ptr %this.addr, align 8
  %_M_current = getelementptr inbounds %"class.__gnu_cxx::__normal_iterator.77", ptr %this1, i32 0, i32 0
  %0 = load ptr, ptr %_M_current, align 8
  %1 = load i64, ptr %__n.addr, align 8
  %add.ptr = getelementptr inbounds %"class.ue2::graph_detail::vertex_descriptor", ptr %0, i64 %1
  store ptr %add.ptr, ptr %ref.tmp, align 8
  call void @_ZN9__gnu_cxx17__normal_iteratorIPN3ue212graph_detail17vertex_descriptorINS1_9ue2_graphINS1_8NGHolderENS1_19NFAGraphVertexPropsENS1_17NFAGraphEdgePropsEEEEESt6vectorIS9_SaIS9_EEEC2ERKSA_(ptr noundef nonnull align 8 dereferenceable(8) %retval, ptr noundef nonnull align 8 dereferenceable(8) %ref.tmp) #2
  %coerce.dive = getelementptr inbounds %"class.__gnu_cxx::__normal_iterator.77", ptr %retval, i32 0, i32 0
  %2 = load ptr, ptr %coerce.dive, align 8
  ret ptr %2
}

; Function Attrs: mustprogress nounwind uwtable
define linkonce_odr hidden noundef i64 @_ZN9__gnu_cxxmiIPN3ue212graph_detail17vertex_descriptorINS1_9ue2_graphINS1_8NGHolderENS1_19NFAGraphVertexPropsENS1_17NFAGraphEdgePropsEEEEESt6vectorIS9_SaIS9_EEEENS_17__normal_iteratorIT_T0_E15difference_typeERKSH_SK_(ptr noundef nonnull align 8 dereferenceable(8) %__lhs, ptr noundef nonnull align 8 dereferenceable(8) %__rhs) #1 comdat {
entry:
  %__lhs.addr = alloca ptr, align 8
  %__rhs.addr = alloca ptr, align 8
  store ptr %__lhs, ptr %__lhs.addr, align 8
  store ptr %__rhs, ptr %__rhs.addr, align 8
  %0 = load ptr, ptr %__lhs.addr, align 8
  %call = call noundef nonnull align 8 dereferenceable(8) ptr @_ZNK9__gnu_cxx17__normal_iteratorIPN3ue212graph_detail17vertex_descriptorINS1_9ue2_graphINS1_8NGHolderENS1_19NFAGraphVertexPropsENS1_17NFAGraphEdgePropsEEEEESt6vectorIS9_SaIS9_EEE4baseEv(ptr noundef nonnull align 8 dereferenceable(8) %0) #2
  %1 = load ptr, ptr %call, align 8
  %2 = load ptr, ptr %__rhs.addr, align 8
  %call1 = call noundef nonnull align 8 dereferenceable(8) ptr @_ZNK9__gnu_cxx17__normal_iteratorIPN3ue212graph_detail17vertex_descriptorINS1_9ue2_graphINS1_8NGHolderENS1_19NFAGraphVertexPropsENS1_17NFAGraphEdgePropsEEEEESt6vectorIS9_SaIS9_EEE4baseEv(ptr noundef nonnull align 8 dereferenceable(8) %2) #2
  %3 = load ptr, ptr %call1, align 8
  %sub.ptr.lhs.cast = ptrtoint ptr %1 to i64
  %sub.ptr.rhs.cast = ptrtoint ptr %3 to i64
  %sub.ptr.sub = sub i64 %sub.ptr.lhs.cast, %sub.ptr.rhs.cast
  %sub.ptr.div = sdiv exact i64 %sub.ptr.sub, 16
  ret i64 %sub.ptr.div
}

; Function Attrs: mustprogress uwtable
define internal void @"_ZSt22__stable_sort_adaptiveIN9__gnu_cxx17__normal_iteratorIPN3ue212graph_detail17vertex_descriptorINS2_9ue2_graphINS2_8NGHolderENS2_19NFAGraphVertexPropsENS2_17NFAGraphEdgePropsEEEEESt6vectorISA_SaISA_EEEESB_lNS0_5__ops15_Iter_comp_iterIZNS2_L20pruneUsingSuccessorsERS6_RNS2_14PrunePathsInfoESA_NS2_8som_typeEE3$_0EEEvT_SO_T0_T1_T2_"(ptr %__first.coerce, ptr %__last.coerce, ptr noundef %__buffer, i64 noundef %__buffer_size, ptr %__comp.coerce) #3 {
entry:
  %__first = alloca %"class.__gnu_cxx::__normal_iterator.77", align 8
  %__last = alloca %"class.__gnu_cxx::__normal_iterator.77", align 8
  %__comp = alloca %"struct.__gnu_cxx::__ops::_Iter_comp_iter", align 8
  %__buffer.addr = alloca ptr, align 8
  %__buffer_size.addr = alloca i64, align 8
  %__len = alloca i64, align 8
  %__middle = alloca %"class.__gnu_cxx::__normal_iterator.77", align 8
  %agg.tmp = alloca %"class.__gnu_cxx::__normal_iterator.77", align 8
  %agg.tmp6 = alloca %"class.__gnu_cxx::__normal_iterator.77", align 8
  %agg.tmp7 = alloca %"struct.__gnu_cxx::__ops::_Iter_comp_iter", align 8
  %agg.tmp12 = alloca %"class.__gnu_cxx::__normal_iterator.77", align 8
  %agg.tmp13 = alloca %"class.__gnu_cxx::__normal_iterator.77", align 8
  %agg.tmp14 = alloca %"struct.__gnu_cxx::__ops::_Iter_comp_iter", align 8
  %agg.tmp19 = alloca %"class.__gnu_cxx::__normal_iterator.77", align 8
  %agg.tmp20 = alloca %"class.__gnu_cxx::__normal_iterator.77", align 8
  %agg.tmp21 = alloca %"struct.__gnu_cxx::__ops::_Iter_comp_iter", align 8
  %agg.tmp26 = alloca %"class.__gnu_cxx::__normal_iterator.77", align 8
  %agg.tmp27 = alloca %"class.__gnu_cxx::__normal_iterator.77", align 8
  %agg.tmp28 = alloca %"struct.__gnu_cxx::__ops::_Iter_comp_iter", align 8
  %agg.tmp33 = alloca %"class.__gnu_cxx::__normal_iterator.77", align 8
  %agg.tmp34 = alloca %"class.__gnu_cxx::__normal_iterator.77", align 8
  %agg.tmp35 = alloca %"class.__gnu_cxx::__normal_iterator.77", align 8
  %agg.tmp38 = alloca %"struct.__gnu_cxx::__ops::_Iter_comp_iter", align 8
  %coerce.dive = getelementptr inbounds %"class.__gnu_cxx::__normal_iterator.77", ptr %__first, i32 0, i32 0
  store ptr %__first.coerce, ptr %coerce.dive, align 8
  %coerce.dive1 = getelementptr inbounds %"class.__gnu_cxx::__normal_iterator.77", ptr %__last, i32 0, i32 0
  store ptr %__last.coerce, ptr %coerce.dive1, align 8
  %coerce.dive2 = getelementptr inbounds %"struct.__gnu_cxx::__ops::_Iter_comp_iter", ptr %__comp, i32 0, i32 0
  %coerce.dive3 = getelementptr inbounds %class.anon, ptr %coerce.dive2, i32 0, i32 0
  store ptr %__comp.coerce, ptr %coerce.dive3, align 8
  store ptr %__buffer, ptr %__buffer.addr, align 8
  store i64 %__buffer_size, ptr %__buffer_size.addr, align 8
  %call = call noundef i64 @_ZN9__gnu_cxxmiIPN3ue212graph_detail17vertex_descriptorINS1_9ue2_graphINS1_8NGHolderENS1_19NFAGraphVertexPropsENS1_17NFAGraphEdgePropsEEEEESt6vectorIS9_SaIS9_EEEENS_17__normal_iteratorIT_T0_E15difference_typeERKSH_SK_(ptr noundef nonnull align 8 dereferenceable(8) %__last, ptr noundef nonnull align 8 dereferenceable(8) %__first) #2
  %add = add nsw i64 %call, 1
  %div = sdiv i64 %add, 2
  store i64 %div, ptr %__len, align 8
  %0 = load i64, ptr %__len, align 8
  %call4 = call ptr @_ZNK9__gnu_cxx17__normal_iteratorIPN3ue212graph_detail17vertex_descriptorINS1_9ue2_graphINS1_8NGHolderENS1_19NFAGraphVertexPropsENS1_17NFAGraphEdgePropsEEEEESt6vectorIS9_SaIS9_EEEplEl(ptr noundef nonnull align 8 dereferenceable(8) %__first, i64 noundef %0) #2
  %coerce.dive5 = getelementptr inbounds %"class.__gnu_cxx::__normal_iterator.77", ptr %__middle, i32 0, i32 0
  store ptr %call4, ptr %coerce.dive5, align 8
  %1 = load i64, ptr %__len, align 8
  %2 = load i64, ptr %__buffer_size.addr, align 8
  %cmp = icmp sgt i64 %1, %2
  br i1 %cmp, label %if.then, label %if.else

if.then:                                          ; preds = %entry
  call void @llvm.memcpy.p0.p0.i64(ptr align 8 %agg.tmp, ptr align 8 %__first, i64 8, i1 false)
  call void @llvm.memcpy.p0.p0.i64(ptr align 8 %agg.tmp6, ptr align 8 %__middle, i64 8, i1 false)
  %3 = load ptr, ptr %__buffer.addr, align 8
  %4 = load i64, ptr %__buffer_size.addr, align 8
  call void @llvm.memcpy.p0.p0.i64(ptr align 8 %agg.tmp7, ptr align 8 %__comp, i64 8, i1 false)
  %coerce.dive8 = getelementptr inbounds %"class.__gnu_cxx::__normal_iterator.77", ptr %agg.tmp, i32 0, i32 0
  %5 = load ptr, ptr %coerce.dive8, align 8
  %coerce.dive9 = getelementptr inbounds %"class.__gnu_cxx::__normal_iterator.77", ptr %agg.tmp6, i32 0, i32 0
  %6 = load ptr, ptr %coerce.dive9, align 8
  %coerce.dive10 = getelementptr inbounds %"struct.__gnu_cxx::__ops::_Iter_comp_iter", ptr %agg.tmp7, i32 0, i32 0
  %coerce.dive11 = getelementptr inbounds %class.anon, ptr %coerce.dive10, i32 0, i32 0
  %7 = load ptr, ptr %coerce.dive11, align 8
  call void @"_ZSt22__stable_sort_adaptiveIN9__gnu_cxx17__normal_iteratorIPN3ue212graph_detail17vertex_descriptorINS2_9ue2_graphINS2_8NGHolderENS2_19NFAGraphVertexPropsENS2_17NFAGraphEdgePropsEEEEESt6vectorISA_SaISA_EEEESB_lNS0_5__ops15_Iter_comp_iterIZNS2_L20pruneUsingSuccessorsERS6_RNS2_14PrunePathsInfoESA_NS2_8som_typeEE3$_0EEEvT_SO_T0_T1_T2_"(ptr %5, ptr %6, ptr noundef %3, i64 noundef %4, ptr %7)
  call void @llvm.memcpy.p0.p0.i64(ptr align 8 %agg.tmp12, ptr align 8 %__middle, i64 8, i1 false)
  call void @llvm.memcpy.p0.p0.i64(ptr align 8 %agg.tmp13, ptr align 8 %__last, i64 8, i1 false)
  %8 = load ptr, ptr %__buffer.addr, align 8
  %9 = load i64, ptr %__buffer_size.addr, align 8
  call void @llvm.memcpy.p0.p0.i64(ptr align 8 %agg.tmp14, ptr align 8 %__comp, i64 8, i1 false)
  %coerce.dive15 = getelementptr inbounds %"class.__gnu_cxx::__normal_iterator.77", ptr %agg.tmp12, i32 0, i32 0
  %10 = load ptr, ptr %coerce.dive15, align 8
  %coerce.dive16 = getelementptr inbounds %"class.__gnu_cxx::__normal_iterator.77", ptr %agg.tmp13, i32 0, i32 0
  %11 = load ptr, ptr %coerce.dive16, align 8
  %coerce.dive17 = getelementptr inbounds %"struct.__gnu_cxx::__ops::_Iter_comp_iter", ptr %agg.tmp14, i32 0, i32 0
  %coerce.dive18 = getelementptr inbounds %class.anon, ptr %coerce.dive17, i32 0, i32 0
  %12 = load ptr, ptr %coerce.dive18, align 8
  call void @"_ZSt22__stable_sort_adaptiveIN9__gnu_cxx17__normal_iteratorIPN3ue212graph_detail17vertex_descriptorINS2_9ue2_graphINS2_8NGHolderENS2_19NFAGraphVertexPropsENS2_17NFAGraphEdgePropsEEEEESt6vectorISA_SaISA_EEEESB_lNS0_5__ops15_Iter_comp_iterIZNS2_L20pruneUsingSuccessorsERS6_RNS2_14PrunePathsInfoESA_NS2_8som_typeEE3$_0EEEvT_SO_T0_T1_T2_"(ptr %10, ptr %11, ptr noundef %8, i64 noundef %9, ptr %12)
  br label %if.end

if.else:                                          ; preds = %entry
  call void @llvm.memcpy.p0.p0.i64(ptr align 8 %agg.tmp19, ptr align 8 %__first, i64 8, i1 false)
  call void @llvm.memcpy.p0.p0.i64(ptr align 8 %agg.tmp20, ptr align 8 %__middle, i64 8, i1 false)
  %13 = load ptr, ptr %__buffer.addr, align 8
  call void @llvm.memcpy.p0.p0.i64(ptr align 8 %agg.tmp21, ptr align 8 %__comp, i64 8, i1 false)
  %coerce.dive22 = getelementptr inbounds %"class.__gnu_cxx::__normal_iterator.77", ptr %agg.tmp19, i32 0, i32 0
  %14 = load ptr, ptr %coerce.dive22, align 8
  %coerce.dive23 = getelementptr inbounds %"class.__gnu_cxx::__normal_iterator.77", ptr %agg.tmp20, i32 0, i32 0
  %15 = load ptr, ptr %coerce.dive23, align 8
  %coerce.dive24 = getelementptr inbounds %"struct.__gnu_cxx::__ops::_Iter_comp_iter", ptr %agg.tmp21, i32 0, i32 0
  %coerce.dive25 = getelementptr inbounds %class.anon, ptr %coerce.dive24, i32 0, i32 0
  %16 = load ptr, ptr %coerce.dive25, align 8
  call void @"_ZSt24__merge_sort_with_bufferIN9__gnu_cxx17__normal_iteratorIPN3ue212graph_detail17vertex_descriptorINS2_9ue2_graphINS2_8NGHolderENS2_19NFAGraphVertexPropsENS2_17NFAGraphEdgePropsEEEEESt6vectorISA_SaISA_EEEESB_NS0_5__ops15_Iter_comp_iterIZNS2_L20pruneUsingSuccessorsERS6_RNS2_14PrunePathsInfoESA_NS2_8som_typeEE3$_0EEEvT_SO_T0_T1_"(ptr %14, ptr %15, ptr noundef %13, ptr %16)
  call void @llvm.memcpy.p0.p0.i64(ptr align 8 %agg.tmp26, ptr align 8 %__middle, i64 8, i1 false)
  call void @llvm.memcpy.p0.p0.i64(ptr align 8 %agg.tmp27, ptr align 8 %__last, i64 8, i1 false)
  %17 = load ptr, ptr %__buffer.addr, align 8
  call void @llvm.memcpy.p0.p0.i64(ptr align 8 %agg.tmp28, ptr align 8 %__comp, i64 8, i1 false)
  %coerce.dive29 = getelementptr inbounds %"class.__gnu_cxx::__normal_iterator.77", ptr %agg.tmp26, i32 0, i32 0
  %18 = load ptr, ptr %coerce.dive29, align 8
  %coerce.dive30 = getelementptr inbounds %"class.__gnu_cxx::__normal_iterator.77", ptr %agg.tmp27, i32 0, i32 0
  %19 = load ptr, ptr %coerce.dive30, align 8
  %coerce.dive31 = getelementptr inbounds %"struct.__gnu_cxx::__ops::_Iter_comp_iter", ptr %agg.tmp28, i32 0, i32 0
  %coerce.dive32 = getelementptr inbounds %class.anon, ptr %coerce.dive31, i32 0, i32 0
  %20 = load ptr, ptr %coerce.dive32, align 8
  call void @"_ZSt24__merge_sort_with_bufferIN9__gnu_cxx17__normal_iteratorIPN3ue212graph_detail17vertex_descriptorINS2_9ue2_graphINS2_8NGHolderENS2_19NFAGraphVertexPropsENS2_17NFAGraphEdgePropsEEEEESt6vectorISA_SaISA_EEEESB_NS0_5__ops15_Iter_comp_iterIZNS2_L20pruneUsingSuccessorsERS6_RNS2_14PrunePathsInfoESA_NS2_8som_typeEE3$_0EEEvT_SO_T0_T1_"(ptr %18, ptr %19, ptr noundef %17, ptr %20)
  br label %if.end

if.end:                                           ; preds = %if.else, %if.then
  call void @llvm.memcpy.p0.p0.i64(ptr align 8 %agg.tmp33, ptr align 8 %__first, i64 8, i1 false)
  call void @llvm.memcpy.p0.p0.i64(ptr align 8 %agg.tmp34, ptr align 8 %__middle, i64 8, i1 false)
  call void @llvm.memcpy.p0.p0.i64(ptr align 8 %agg.tmp35, ptr align 8 %__last, i64 8, i1 false)
  %call36 = call noundef i64 @_ZN9__gnu_cxxmiIPN3ue212graph_detail17vertex_descriptorINS1_9ue2_graphINS1_8NGHolderENS1_19NFAGraphVertexPropsENS1_17NFAGraphEdgePropsEEEEESt6vectorIS9_SaIS9_EEEENS_17__normal_iteratorIT_T0_E15difference_typeERKSH_SK_(ptr noundef nonnull align 8 dereferenceable(8) %__middle, ptr noundef nonnull align 8 dereferenceable(8) %__first) #2
  %call37 = call noundef i64 @_ZN9__gnu_cxxmiIPN3ue212graph_detail17vertex_descriptorINS1_9ue2_graphINS1_8NGHolderENS1_19NFAGraphVertexPropsENS1_17NFAGraphEdgePropsEEEEESt6vectorIS9_SaIS9_EEEENS_17__normal_iteratorIT_T0_E15difference_typeERKSH_SK_(ptr noundef nonnull align 8 dereferenceable(8) %__last, ptr noundef nonnull align 8 dereferenceable(8) %__middle) #2
  %21 = load ptr, ptr %__buffer.addr, align 8
  %22 = load i64, ptr %__buffer_size.addr, align 8
  call void @llvm.memcpy.p0.p0.i64(ptr align 8 %agg.tmp38, ptr align 8 %__comp, i64 8, i1 false)
  %coerce.dive39 = getelementptr inbounds %"class.__gnu_cxx::__normal_iterator.77", ptr %agg.tmp33, i32 0, i32 0
  %23 = load ptr, ptr %coerce.dive39, align 8
  %coerce.dive40 = getelementptr inbounds %"class.__gnu_cxx::__normal_iterator.77", ptr %agg.tmp34, i32 0, i32 0
  %24 = load ptr, ptr %coerce.dive40, align 8
  %coerce.dive41 = getelementptr inbounds %"class.__gnu_cxx::__normal_iterator.77", ptr %agg.tmp35, i32 0, i32 0
  %25 = load ptr, ptr %coerce.dive41, align 8
  %coerce.dive42 = getelementptr inbounds %"struct.__gnu_cxx::__ops::_Iter_comp_iter", ptr %agg.tmp38, i32 0, i32 0
  %coerce.dive43 = getelementptr inbounds %class.anon, ptr %coerce.dive42, i32 0, i32 0
  %26 = load ptr, ptr %coerce.dive43, align 8
  %coerce.val.pi = ptrtoint ptr %26 to i64
  call void @"_ZSt16__merge_adaptiveIN9__gnu_cxx17__normal_iteratorIPN3ue212graph_detail17vertex_descriptorINS2_9ue2_graphINS2_8NGHolderENS2_19NFAGraphVertexPropsENS2_17NFAGraphEdgePropsEEEEESt6vectorISA_SaISA_EEEElSB_NS0_5__ops15_Iter_comp_iterIZNS2_L20pruneUsingSuccessorsERS6_RNS2_14PrunePathsInfoESA_NS2_8som_typeEE3$_0EEEvT_SO_SO_T0_SP_T1_SP_T2_"(ptr %23, ptr %24, ptr %25, i64 noundef %call36, i64 noundef %call37, ptr noundef %21, i64 noundef %22, i64 %coerce.val.pi)
  ret void
}