; Function Attrs: mustprogress uwtable
define internal fastcc void @"_ZSt22__stable_sort_adaptiveIN9__gnu_cxx17__normal_iteratorIPN3ue212graph_detail17vertex_descriptorINS2_9ue2_graphINS2_8NGHolderENS2_19NFAGraphVertexPropsENS2_17NFAGraphEdgePropsEEEEESt6vectorISA_SaISA_EEEESB_lNS0_5__ops15_Iter_comp_iterIZNS2_L20pruneUsingSuccessorsERS6_RNS2_14PrunePathsInfoESA_NS2_8som_typeEE3$_0EEEvT_SO_T0_T1_T2_"(ptr %__first.coerce, ptr %__last.coerce, ptr noundef %__buffer, i64 noundef %__buffer_size, ptr %__comp.coerce) unnamed_addr #2 {
entry:
  %sub.ptr.lhs.cast.i = ptrtoint ptr %__last.coerce to i64
  %sub.ptr.rhs.cast.i = ptrtoint ptr %__first.coerce to i64
  %sub.ptr.sub.i = sub i64 %sub.ptr.lhs.cast.i, %sub.ptr.rhs.cast.i
  %sub.ptr.div.i = ashr exact i64 %sub.ptr.sub.i, 4
  %add = add nsw i64 %sub.ptr.div.i, 1
  %div = sdiv i64 %add, 2
  %add.ptr.i = getelementptr inbounds %"class.ue2::graph_detail::vertex_descriptor", ptr %__first.coerce, i64 %div
  %cmp = icmp sgt i64 %div, %__buffer_size
  br i1 %cmp, label %if.then, label %if.else

if.then:                                          ; preds = %entry
  tail call fastcc void @"_ZSt22__stable_sort_adaptiveIN9__gnu_cxx17__normal_iteratorIPN3ue212graph_detail17vertex_descriptorINS2_9ue2_graphINS2_8NGHolderENS2_19NFAGraphVertexPropsENS2_17NFAGraphEdgePropsEEEEESt6vectorISA_SaISA_EEEESB_lNS0_5__ops15_Iter_comp_iterIZNS2_L20pruneUsingSuccessorsERS6_RNS2_14PrunePathsInfoESA_NS2_8som_typeEE3$_0EEEvT_SO_T0_T1_T2_"(ptr %__first.coerce, ptr %add.ptr.i, ptr noundef %__buffer, i64 noundef %__buffer_size, ptr %__comp.coerce)
  tail call fastcc void @"_ZSt22__stable_sort_adaptiveIN9__gnu_cxx17__normal_iteratorIPN3ue212graph_detail17vertex_descriptorINS2_9ue2_graphINS2_8NGHolderENS2_19NFAGraphVertexPropsENS2_17NFAGraphEdgePropsEEEEESt6vectorISA_SaISA_EEEESB_lNS0_5__ops15_Iter_comp_iterIZNS2_L20pruneUsingSuccessorsERS6_RNS2_14PrunePathsInfoESA_NS2_8som_typeEE3$_0EEEvT_SO_T0_T1_T2_"(ptr %add.ptr.i, ptr %__last.coerce, ptr noundef %__buffer, i64 noundef %__buffer_size, ptr %__comp.coerce)
  br label %if.end

if.else:                                          ; preds = %entry
  tail call fastcc void @"_ZSt24__merge_sort_with_bufferIN9__gnu_cxx17__normal_iteratorIPN3ue212graph_detail17vertex_descriptorINS2_9ue2_graphINS2_8NGHolderENS2_19NFAGraphVertexPropsENS2_17NFAGraphEdgePropsEEEEESt6vectorISA_SaISA_EEEESB_NS0_5__ops15_Iter_comp_iterIZNS2_L20pruneUsingSuccessorsERS6_RNS2_14PrunePathsInfoESA_NS2_8som_typeEE3$_0EEEvT_SO_T0_T1_"(ptr %__first.coerce, ptr %add.ptr.i, ptr noundef %__buffer)
  tail call fastcc void @"_ZSt24__merge_sort_with_bufferIN9__gnu_cxx17__normal_iteratorIPN3ue212graph_detail17vertex_descriptorINS2_9ue2_graphINS2_8NGHolderENS2_19NFAGraphVertexPropsENS2_17NFAGraphEdgePropsEEEEESt6vectorISA_SaISA_EEEESB_NS0_5__ops15_Iter_comp_iterIZNS2_L20pruneUsingSuccessorsERS6_RNS2_14PrunePathsInfoESA_NS2_8som_typeEE3$_0EEEvT_SO_T0_T1_"(ptr %add.ptr.i, ptr %__last.coerce, ptr noundef %__buffer)
  br label %if.end

if.end:                                           ; preds = %if.else, %if.then
  %sub.ptr.lhs.cast.i9 = ptrtoint ptr %add.ptr.i to i64
  %sub.ptr.sub.i15 = sub i64 %sub.ptr.lhs.cast.i, %sub.ptr.lhs.cast.i9
  %sub.ptr.div.i16 = ashr exact i64 %sub.ptr.sub.i15, 4
  tail call fastcc void @"_ZSt16__merge_adaptiveIN9__gnu_cxx17__normal_iteratorIPN3ue212graph_detail17vertex_descriptorINS2_9ue2_graphINS2_8NGHolderENS2_19NFAGraphVertexPropsENS2_17NFAGraphEdgePropsEEEEESt6vectorISA_SaISA_EEEElSB_NS0_5__ops15_Iter_comp_iterIZNS2_L20pruneUsingSuccessorsERS6_RNS2_14PrunePathsInfoESA_NS2_8som_typeEE3$_0EEEvT_SO_SO_T0_SP_T1_SP_T2_"(ptr %__first.coerce, ptr %add.ptr.i, ptr %__last.coerce, i64 noundef %div, i64 noundef %sub.ptr.div.i16, ptr noundef %__buffer, i64 noundef %__buffer_size)
  ret void
}